target datalayout = "e-m:e-p270:32:32-p271:32:32-p272:64:64-i64:64-i128:128-f80:128-n8:16:32:64-S128"
target triple = "x86_64-pc-linux-gnu"

%struct._dfilter_loc = type { i64, i64 }
%struct.dfwork_t = type { ptr, i32, ptr, i32, ptr, ptr, ptr, ptr, i32, i32, ptr, ptr, ptr, ptr, ptr, ptr, i32 }
%struct._header_field_info = type { ptr, ptr, i32, i32, ptr, i64, ptr, i32, i32, i32, i32, ptr }

@.str.12 = private unnamed_addr constant [36 x i8] c"%s cannot accept strings as values.\00", align 1
@.str.13 = private unnamed_addr constant [40 x i8] c"expected \22%s\22 or \22%s\22, not \22%s\22 for %s.\00", align 1
@.str.14 = private unnamed_addr constant [55 x i8] c"\22%s\22 cannot be found among the possible values for %s.\00", align 1

; Function Attrs: null_pointer_is_valid sspstrong uwtable
define internal ptr @mk_string_fvalue(ptr noundef %0) #0 {
  %2 = alloca ptr, align 8
  %3 = alloca ptr, align 8
  store ptr %0, ptr %2, align 8
  call void @llvm.lifetime.start.p0(i64 8, ptr %3) #8
  %4 = call ptr @fvalue_new(i32 noundef 26)
  store ptr %4, ptr %3, align 8
  %5 = load ptr, ptr %3, align 8
  %6 = load ptr, ptr %2, align 8
  call void @fvalue_set_string(ptr noundef %5, ptr noundef %6)
  %7 = load ptr, ptr %3, align 8
  call void @llvm.lifetime.end.p0(i64 8, ptr %3) #8
  ret ptr %7
}

; Function Attrs: null_pointer_is_valid sspstrong uwtable
define internal ptr @mk_uint64_fvalue(i64 noundef %0) #0 {
  %2 = alloca i64, align 8
  %3 = alloca ptr, align 8
  store i64 %0, ptr %2, align 8
  call void @llvm.lifetime.start.p0(i64 8, ptr %3) #8
  %4 = call ptr @fvalue_new(i32 noundef 11)
  store ptr %4, ptr %3, align 8
  %5 = load ptr, ptr %3, align 8
  %6 = load i64, ptr %2, align 8
  call void @fvalue_set_uinteger64(ptr noundef %5, i64 noundef %6)
  %7 = load ptr, ptr %3, align 8
  call void @llvm.lifetime.end.p0(i64 8, ptr %3) #8
  ret ptr %7
}

; Function Attrs: null_pointer_is_valid sspstrong uwtable
define internal ptr @mk_boolean_fvalue(i1 noundef zeroext %0) #0 {
  %2 = alloca i8, align 1
  %3 = alloca ptr, align 8
  %4 = zext i1 %0 to i8
  store i8 %4, ptr %2, align 1
  call void @llvm.lifetime.start.p0(i64 8, ptr %3) #8
  %5 = call ptr @fvalue_new(i32 noundef 2)
  store ptr %5, ptr %3, align 8
  %6 = load ptr, ptr %3, align 8
  %7 = load i8, ptr %2, align 1, !range !6, !noundef !7
  %8 = trunc i8 %7 to i1
  %9 = zext i1 %8 to i64
  call void @fvalue_set_uinteger64(ptr noundef %6, i64 noundef %9)
  %10 = load ptr, ptr %3, align 8
  call void @llvm.lifetime.end.p0(i64 8, ptr %3) #8
  ret ptr %10
}

; Function Attrs: null_pointer_is_valid sspstrong uwtable
define internal i32 @mk_fvalue_from_val_string(ptr noundef %0, ptr noundef %1, ptr noundef %2, ptr noundef %3) #0 {
  %5 = alloca ptr, align 8
  %6 = alloca ptr, align 8
  %7 = alloca ptr, align 8
  %8 = alloca ptr, align 8
  %9 = alloca ptr, align 8
  %10 = alloca i32, align 4
  %11 = alloca i64, align 8
  %12 = alloca i32, align 4
  %13 = alloca i64, align 8
  %14 = alloca %struct._dfilter_loc, align 8
  %15 = alloca %struct._dfilter_loc, align 8
  %16 = alloca %struct._dfilter_loc, align 8
  store ptr %0, ptr %5, align 8
  store ptr %1, ptr %6, align 8
  store ptr %2, ptr %7, align 8
  store ptr %3, ptr %8, align 8
  call void @llvm.lifetime.start.p0(i64 8, ptr %9) #8
  store ptr null, ptr %9, align 8
  call void @llvm.lifetime.start.p0(i64 4, ptr %10) #8
  call void @llvm.lifetime.start.p0(i64 8, ptr %11) #8
  store i64 0, ptr %11, align 8
  br label %17

17:                                               ; preds = %22, %4
  %18 = load ptr, ptr %6, align 8
  %19 = getelementptr inbounds nuw %struct._header_field_info, ptr %18, i32 0, i32 10
  %20 = load i32, ptr %19, align 4
  %21 = icmp ne i32 %20, -1
  br i1 %21, label %22, label %27

22:                                               ; preds = %17
  %23 = load ptr, ptr %6, align 8
  %24 = getelementptr inbounds nuw %struct._header_field_info, ptr %23, i32 0, i32 10
  %25 = load i32, ptr %24, align 4
  %26 = call ptr @proto_registrar_get_nth(i32 noundef %25)
  store ptr %26, ptr %6, align 8
  br label %17, !llvm.loop !8

27:                                               ; preds = %17
  %28 = load ptr, ptr %6, align 8
  %29 = load ptr, ptr %7, align 8
  %30 = call i32 @mk_fvalue_from_hfinfo(ptr noundef %28, ptr noundef %29, ptr noundef %11)
  store i32 %30, ptr %10, align 4
  br label %31

31:                                               ; preds = %76, %27
  %32 = load i32, ptr %10, align 4
  %33 = icmp ne i32 %32, 5
  br i1 %33, label %34, label %39

34:                                               ; preds = %31
  %35 = load ptr, ptr %6, align 8
  %36 = getelementptr inbounds nuw %struct._header_field_info, ptr %35, i32 0, i32 11
  %37 = load ptr, ptr %36, align 8
  %38 = icmp ne ptr %37, null
  br label %39

39:                                               ; preds = %34, %31
  %40 = phi i1 [ false, %31 ], [ %38, %34 ]
  br i1 %40, label %41, label %77

41:                                               ; preds = %39
  call void @llvm.lifetime.start.p0(i64 4, ptr %12) #8
  %42 = load i32, ptr %10, align 4
  store i32 %42, ptr %12, align 4
  call void @llvm.lifetime.start.p0(i64 8, ptr %13) #8
  %43 = load i64, ptr %11, align 8
  store i64 %43, ptr %13, align 8
  %44 = load ptr, ptr %6, align 8
  %45 = getelementptr inbounds nuw %struct._header_field_info, ptr %44, i32 0, i32 11
  %46 = load ptr, ptr %45, align 8
  store ptr %46, ptr %6, align 8
  %47 = load ptr, ptr %6, align 8
  %48 = load ptr, ptr %7, align 8
  %49 = call i32 @mk_fvalue_from_hfinfo(ptr noundef %47, ptr noundef %48, ptr noundef %11)
  store i32 %49, ptr %10, align 4
  %50 = load i32, ptr %10, align 4
  switch i32 %50, label %76 [
    i32 0, label %51
    i32 1, label %51
    i32 2, label %51
    i32 3, label %66
    i32 4, label %66
    i32 5, label %76
  ]

51:                                               ; preds = %41, %41, %41
  %52 = load i32, ptr %12, align 4
  %53 = icmp ugt i32 %52, 2
  br i1 %53, label %54, label %55

54:                                               ; preds = %51
  store i32 5, ptr %10, align 4
  br label %65

55:                                               ; preds = %51
  %56 = load i32, ptr %10, align 4
  %57 = load i32, ptr %12, align 4
  %58 = icmp ugt i32 %56, %57
  br i1 %58, label %59, label %61

59:                                               ; preds = %55
  %60 = load i32, ptr %10, align 4
  br label %63

61:                                               ; preds = %55
  %62 = load i32, ptr %12, align 4
  br label %63

63:                                               ; preds = %61, %59
  %64 = phi i32 [ %60, %59 ], [ %62, %61 ]
  store i32 %64, ptr %10, align 4
  br label %65

65:                                               ; preds = %63, %54
  br label %76

66:                                               ; preds = %41, %41
  %67 = load i32, ptr %12, align 4
  %68 = load i32, ptr %10, align 4
  %69 = icmp ne i32 %67, %68
  br i1 %69, label %74, label %70

70:                                               ; preds = %66
  %71 = load i64, ptr %11, align 8
  %72 = load i64, ptr %13, align 8
  %73 = icmp ne i64 %71, %72
  br i1 %73, label %74, label %75

74:                                               ; preds = %70, %66
  store i32 5, ptr %10, align 4
  br label %75

75:                                               ; preds = %74, %70
  br label %76

76:                                               ; preds = %41, %41, %75, %65
  call void @llvm.lifetime.end.p0(i64 8, ptr %13) #8
  call void @llvm.lifetime.end.p0(i64 4, ptr %12) #8
  br label %31, !llvm.loop !10

77:                                               ; preds = %39
  %78 = load i32, ptr %10, align 4
  switch i32 %78, label %158 [
    i32 3, label %79
    i32 4, label %83
    i32 5, label %86
    i32 0, label %89
    i32 1, label %90
    i32 2, label %105
  ]

79:                                               ; preds = %77
  %80 = load i64, ptr %11, align 8
  %81 = icmp ne i64 %80, 0
  %82 = call ptr @mk_boolean_fvalue(i1 noundef zeroext %81)
  store ptr %82, ptr %9, align 8
  br label %158

83:                                               ; preds = %77
  %84 = load i64, ptr %11, align 8
  %85 = call ptr @mk_uint64_fvalue(i64 noundef %84)
  store ptr %85, ptr %9, align 8
  br label %158

86:                                               ; preds = %77
  %87 = load ptr, ptr %7, align 8
  %88 = call ptr @mk_string_fvalue(ptr noundef %87)
  store ptr %88, ptr %9, align 8
  br label %158

89:                                               ; preds = %77
  store i32 2, ptr %10, align 4
  br label %158

90:                                               ; preds = %77
  %91 = load ptr, ptr %5, align 8
  %92 = load ptr, ptr %8, align 8
  %93 = call { i64, i64 } @stnode_location(ptr noundef %92)
  %94 = getelementptr inbounds nuw { i64, i64 }, ptr %14, i32 0, i32 0
  %95 = extractvalue { i64, i64 } %93, 0
  store i64 %95, ptr %94, align 8
  %96 = getelementptr inbounds nuw { i64, i64 }, ptr %14, i32 0, i32 1
  %97 = extractvalue { i64, i64 } %93, 1
  store i64 %97, ptr %96, align 8
  %98 = load ptr, ptr %6, align 8
  %99 = getelementptr inbounds nuw %struct._header_field_info, ptr %98, i32 0, i32 1
  %100 = load ptr, ptr %99, align 8
  %101 = getelementptr inbounds nuw { i64, i64 }, ptr %14, i32 0, i32 0
  %102 = load i64, ptr %101, align 8
  %103 = getelementptr inbounds nuw { i64, i64 }, ptr %14, i32 0, i32 1
  %104 = load i64, ptr %103, align 8
  call void (ptr, i32, i64, i64, ptr, ...) @dfilter_fail(ptr noundef %91, i32 noundef -1, i64 %102, i64 %104, ptr noundef @.str.12, ptr noundef %100)
  store i32 2, ptr %10, align 4
  br label %158

105:                                              ; preds = %77
  %106 = load ptr, ptr %5, align 8
  %107 = getelementptr inbounds nuw %struct.dfwork_t, ptr %106, i32 0, i32 0
  call void @df_error_free(ptr noundef %107)
  %108 = load ptr, ptr %6, align 8
  %109 = getelementptr inbounds nuw %struct._header_field_info, ptr %108, i32 0, i32 2
  %110 = load i32, ptr %109, align 8
  %111 = icmp eq i32 %110, 2
  br i1 %111, label %112, label %141

112:                                              ; preds = %105
  %113 = load ptr, ptr %6, align 8
  %114 = getelementptr inbounds nuw %struct._header_field_info, ptr %113, i32 0, i32 11
  %115 = load ptr, ptr %114, align 8
  %116 = icmp eq ptr %115, null
  br i1 %116, label %117, label %141

117:                                              ; preds = %112
  %118 = load ptr, ptr %5, align 8
  %119 = load ptr, ptr %8, align 8
  %120 = call { i64, i64 } @stnode_location(ptr noundef %119)
  %121 = getelementptr inbounds nuw { i64, i64 }, ptr %15, i32 0, i32 0
  %122 = extractvalue { i64, i64 } %120, 0
  store i64 %122, ptr %121, align 8
  %123 = getelementptr inbounds nuw { i64, i64 }, ptr %15, i32 0, i32 1
  %124 = extractvalue { i64, i64 } %120, 1
  store i64 %124, ptr %123, align 8
  %125 = load ptr, ptr %6, align 8
  %126 = getelementptr inbounds nuw %struct._header_field_info, ptr %125, i32 0, i32 4
  %127 = load ptr, ptr %126, align 8
  %128 = call ptr @tfs_get_string(i1 noundef zeroext true, ptr noundef %127)
  %129 = load ptr, ptr %6, align 8
  %130 = getelementptr inbounds nuw %struct._header_field_info, ptr %129, i32 0, i32 4
  %131 = load ptr, ptr %130, align 8
  %132 = call ptr @tfs_get_string(i1 noundef zeroext false, ptr noundef %131)
  %133 = load ptr, ptr %7, align 8
  %134 = load ptr, ptr %6, align 8
  %135 = getelementptr inbounds nuw %struct._header_field_info, ptr %134, i32 0, i32 1
  %136 = load ptr, ptr %135, align 8
  %137 = getelementptr inbounds nuw { i64, i64 }, ptr %15, i32 0, i32 0
  %138 = load i64, ptr %137, align 8
  %139 = getelementptr inbounds nuw { i64, i64 }, ptr %15, i32 0, i32 1
  %140 = load i64, ptr %139, align 8
  call void (ptr, i32, i64, i64, ptr, ...) @dfilter_fail(ptr noundef %118, i32 noundef -1, i64 %138, i64 %140, ptr noundef @.str.13, ptr noundef %128, ptr noundef %132, ptr noundef %133, ptr noundef %136)
  br label %157

141:                                              ; preds = %112, %105
  %142 = load ptr, ptr %5, align 8
  %143 = load ptr, ptr %8, align 8
  %144 = call { i64, i64 } @stnode_location(ptr noundef %143)
  %145 = getelementptr inbounds nuw { i64, i64 }, ptr %16, i32 0, i32 0
  %146 = extractvalue { i64, i64 } %144, 0
  store i64 %146, ptr %145, align 8
  %147 = getelementptr inbounds nuw { i64, i64 }, ptr %16, i32 0, i32 1
  %148 = extractvalue { i64, i64 } %144, 1
  store i64 %148, ptr %147, align 8
  %149 = load ptr, ptr %7, align 8
  %150 = load ptr, ptr %6, align 8
  %151 = getelementptr inbounds nuw %struct._header_field_info, ptr %150, i32 0, i32 1
  %152 = load ptr, ptr %151, align 8
  %153 = getelementptr inbounds nuw { i64, i64 }, ptr %16, i32 0, i32 0
  %154 = load i64, ptr %153, align 8
  %155 = getelementptr inbounds nuw { i64, i64 }, ptr %16, i32 0, i32 1
  %156 = load i64, ptr %155, align 8
  call void (ptr, i32, i64, i64, ptr, ...) @dfilter_fail(ptr noundef %142, i32 noundef -1, i64 %154, i64 %156, ptr noundef @.str.14, ptr noundef %149, ptr noundef %152)
  br label %157

157:                                              ; preds = %141, %117
  br label %158

158:                                              ; preds = %77, %157, %90, %89, %86, %83, %79
  %159 = load ptr, ptr %9, align 8
  %160 = icmp ne ptr %159, null
  br i1 %160, label %161, label %166

161:                                              ; preds = %158
  %162 = load ptr, ptr %5, align 8
  %163 = getelementptr inbounds nuw %struct.dfwork_t, ptr %162, i32 0, i32 0
  call void @df_error_free(ptr noundef %163)
  %164 = load ptr, ptr %8, align 8
  %165 = load ptr, ptr %9, align 8
  call void @stnode_replace(ptr noundef %164, i32 noundef 9, ptr noundef %165)
  br label %166

166:                                              ; preds = %161, %158
  %167 = load i32, ptr %10, align 4
  call void @llvm.lifetime.end.p0(i64 8, ptr %11) #8
  call void @llvm.lifetime.end.p0(i64 4, ptr %10) #8
  call void @llvm.lifetime.end.p0(i64 8, ptr %9) #8
  ret i32 %167
}