; Function Attrs: null_pointer_is_valid sspstrong uwtable
define internal fastcc range(i32 2, 6) i32 @mk_fvalue_from_val_string(ptr noundef %0, ptr noundef nonnull readonly captures(none) %1, ptr noundef %2, ptr noundef %3) unnamed_addr #0 {
  %5 = alloca i64, align 8
  call void @llvm.lifetime.start.p0(i64 8, ptr nonnull %5) #8
  store i64 0, ptr %5, align 8
  %6 = getelementptr inbounds nuw i8, ptr %1, i64 60
  %7 = load i32, ptr %6, align 4
  %.not62 = icmp eq i32 %7, -1
  br i1 %.not62, label %._crit_edge, label %.lr.ph

.lr.ph:                                           ; preds = %4, %.lr.ph
  %8 = phi i32 [ %11, %.lr.ph ], [ %7, %4 ]
  %9 = tail call ptr @proto_registrar_get_nth(i32 noundef %8)
  %10 = getelementptr inbounds nuw i8, ptr %9, i64 60
  %11 = load i32, ptr %10, align 4
  %.not = icmp eq i32 %11, -1
  br i1 %.not, label %._crit_edge, label %.lr.ph, !llvm.loop !6

._crit_edge:                                      ; preds = %.lr.ph, %4
  %.0.lcssa = phi ptr [ %1, %4 ], [ %9, %.lr.ph ]
  %12 = call fastcc i32 @mk_fvalue_from_hfinfo(ptr noundef %.0.lcssa, ptr noundef %2, ptr noundef nonnull %5)
  %cond63 = icmp eq i32 %12, 5
  br i1 %cond63, label %._crit_edge68, label %.lr.ph67.preheader

.lr.ph67.preheader:                               ; preds = %._crit_edge
  %13 = getelementptr inbounds nuw i8, ptr %.0.lcssa, i64 64
  %14 = load ptr, ptr %13, align 8
  %.not5281 = icmp eq ptr %14, null
  br i1 %.not5281, label %.critedge, label %.lr.ph83

.lr.ph83:                                         ; preds = %.lr.ph67.preheader, %select.unfold
  %15 = phi ptr [ %25, %select.unfold ], [ %14, %.lr.ph67.preheader ]
  %.0466482 = phi i32 [ %.147, %select.unfold ], [ %12, %.lr.ph67.preheader ]
  %16 = load i64, ptr %5, align 8
  %17 = call fastcc i32 @mk_fvalue_from_hfinfo(ptr noundef nonnull %15, ptr noundef %2, ptr noundef nonnull %5)
  switch i32 %17, label %._crit_edge68 [
    i32 0, label %18
    i32 1, label %18
    i32 2, label %18
    i32 3, label %22
    i32 4, label %22
  ]

18:                                               ; preds = %.lr.ph83, %.lr.ph83, %.lr.ph83
  %19 = icmp ugt i32 %.0466482, 2
  br i1 %19, label %._crit_edge68, label %20

20:                                               ; preds = %18
  %21 = tail call i32 @llvm.umax.i32(i32 %17, i32 %.0466482)
  br label %select.unfold

22:                                               ; preds = %.lr.ph83, %.lr.ph83
  %.not54 = icmp eq i32 %.0466482, %17
  %23 = load i64, ptr %5, align 8
  %.not55 = icmp eq i64 %23, %16
  %or.cond = select i1 %.not54, i1 %.not55, i1 false
  br i1 %or.cond, label %select.unfold, label %._crit_edge68

select.unfold:                                    ; preds = %22, %20
  %.147 = phi i32 [ %21, %20 ], [ %17, %22 ]
  %24 = getelementptr inbounds nuw i8, ptr %15, i64 64
  %25 = load ptr, ptr %24, align 8
  %.not52 = icmp eq ptr %25, null
  br i1 %.not52, label %.critedge, label %.lr.ph83, !llvm.loop !8

.critedge:                                        ; preds = %select.unfold, %.lr.ph67.preheader
  %.165.lcssa = phi ptr [ %.0.lcssa, %.lr.ph67.preheader ], [ %15, %select.unfold ]
  %.04664.lcssa = phi i32 [ %12, %.lr.ph67.preheader ], [ %.147, %select.unfold ]
  %26 = getelementptr inbounds nuw i8, ptr %.165.lcssa, i64 64
  switch i32 %.04664.lcssa, label %default.unreachable [
    i32 3, label %27
    i32 4, label %32
    i32 2, label %42
    i32 0, label %.thread
    i32 1, label %36
  ]

27:                                               ; preds = %.critedge
  %28 = load i64, ptr %5, align 8
  %29 = icmp ne i64 %28, 0
  %30 = tail call ptr @fvalue_new(i32 noundef 2)
  %31 = zext i1 %29 to i64
  tail call void @fvalue_set_uinteger64(ptr noundef %30, i64 noundef %31)
  br label %66

32:                                               ; preds = %.critedge
  %33 = load i64, ptr %5, align 8
  %34 = tail call ptr @fvalue_new(i32 noundef 11)
  tail call void @fvalue_set_uinteger64(ptr noundef %34, i64 noundef %33)
  br label %66

._crit_edge68:                                    ; preds = %22, %18, %.lr.ph83, %._crit_edge
  %35 = tail call ptr @fvalue_new(i32 noundef 26)
  tail call void @fvalue_set_string(ptr noundef %35, ptr noundef %2)
  br label %66

36:                                               ; preds = %.critedge
  %37 = tail call { i64, i64 } @stnode_location(ptr noundef %3)
  %38 = extractvalue { i64, i64 } %37, 0
  %39 = extractvalue { i64, i64 } %37, 1
  %40 = getelementptr inbounds nuw i8, ptr %.165.lcssa, i64 8
  %41 = load ptr, ptr %40, align 8
  tail call void (ptr, i32, i64, i64, ptr, ...) @dfilter_fail(ptr noundef %0, i32 noundef -1, i64 %38, i64 %39, ptr noundef nonnull @.str.12, ptr noundef %41)
  br label %.thread

42:                                               ; preds = %.critedge
  tail call void @df_error_free(ptr noundef %0)
  %43 = getelementptr inbounds nuw i8, ptr %.165.lcssa, i64 16
  %44 = load i32, ptr %43, align 8
  %45 = icmp eq i32 %44, 2
  br i1 %45, label %46, label %60

46:                                               ; preds = %42
  %47 = load ptr, ptr %26, align 8
  %48 = icmp eq ptr %47, null
  br i1 %48, label %49, label %60

49:                                               ; preds = %46
  %50 = tail call { i64, i64 } @stnode_location(ptr noundef %3)
  %51 = extractvalue { i64, i64 } %50, 0
  %52 = extractvalue { i64, i64 } %50, 1
  %53 = getelementptr inbounds nuw i8, ptr %.165.lcssa, i64 24
  %54 = load ptr, ptr %53, align 8
  %55 = tail call ptr @tfs_get_string(i1 noundef zeroext true, ptr noundef %54)
  %56 = load ptr, ptr %53, align 8
  %57 = tail call ptr @tfs_get_string(i1 noundef zeroext false, ptr noundef %56)
  %58 = getelementptr inbounds nuw i8, ptr %.165.lcssa, i64 8
  %59 = load ptr, ptr %58, align 8
  tail call void (ptr, i32, i64, i64, ptr, ...) @dfilter_fail(ptr noundef %0, i32 noundef -1, i64 %51, i64 %52, ptr noundef nonnull @.str.13, ptr noundef %55, ptr noundef %57, ptr noundef %2, ptr noundef %59)
  br label %.thread

60:                                               ; preds = %46, %42
  %61 = tail call { i64, i64 } @stnode_location(ptr noundef %3)
  %62 = extractvalue { i64, i64 } %61, 0
  %63 = extractvalue { i64, i64 } %61, 1
  %64 = getelementptr inbounds nuw i8, ptr %.165.lcssa, i64 8
  %65 = load ptr, ptr %64, align 8
  tail call void (ptr, i32, i64, i64, ptr, ...) @dfilter_fail(ptr noundef %0, i32 noundef -1, i64 %62, i64 %63, ptr noundef nonnull @.str.14, ptr noundef %2, ptr noundef %65)
  br label %.thread

66:                                               ; preds = %._crit_edge68, %32, %27
  %.2 = phi i32 [ 5, %._crit_edge68 ], [ 4, %32 ], [ 3, %27 ]
  %.045 = phi ptr [ %35, %._crit_edge68 ], [ %34, %32 ], [ %30, %27 ]
  %.not53 = icmp eq ptr %.045, null
  br i1 %.not53, label %.thread, label %67

67:                                               ; preds = %66
  tail call void @df_error_free(ptr noundef %0)
  tail call void @stnode_replace(ptr noundef %3, i32 noundef 9, ptr noundef nonnull %.045)
  br label %.thread

default.unreachable:                              ; preds = %.critedge
  unreachable

.thread:                                          ; preds = %.critedge, %36, %60, %49, %67, %66
  %.259 = phi i32 [ %.2, %67 ], [ %.2, %66 ], [ 2, %36 ], [ 2, %60 ], [ 2, %49 ], [ 2, %.critedge ]
  call void @llvm.lifetime.end.p0(i64 8, ptr nonnull %5) #8
  ret i32 %.259
}